target datalayout = "e-m:e-p270:32:32-p271:32:32-p272:64:64-i64:64-i128:128-f80:128-n8:16:32:64-S128"
target triple = "x86_64-pc-linux-gnu"

@.str = private unnamed_addr constant [3 x i8] c"_G\00", align 1
@.str.1 = private unnamed_addr constant [5 x i8] c"Luau\00", align 1
@.str.2 = private unnamed_addr constant [9 x i8] c"_VERSION\00", align 1
@.str.3 = private unnamed_addr constant [7 x i8] c"ipairs\00", align 1
@.str.4 = private unnamed_addr constant [6 x i8] c"pairs\00", align 1
@.str.5 = private unnamed_addr constant [6 x i8] c"pcall\00", align 1
@.str.6 = private unnamed_addr constant [7 x i8] c"xpcall\00", align 1

; Function Attrs: mustprogress uwtable
define internal void @_ZL7auxopenP9lua_StatePKcPFiS0_ES4_(ptr noundef %0, ptr noundef %1, ptr noundef %2, ptr noundef %3) #0 {
  %5 = alloca ptr, align 8
  %6 = alloca ptr, align 8
  %7 = alloca ptr, align 8
  %8 = alloca ptr, align 8
  store ptr %0, ptr %5, align 8
  store ptr %1, ptr %6, align 8
  store ptr %2, ptr %7, align 8
  store ptr %3, ptr %8, align 8
  %9 = load ptr, ptr %5, align 8
  %10 = load ptr, ptr %8, align 8
  call void @_Z17lua_pushcclosurekP9lua_StatePFiS0_EPKciPFiS0_iE(ptr noundef %9, ptr noundef %10, ptr noundef null, i32 noundef 0, ptr noundef null)
  %11 = load ptr, ptr %5, align 8
  %12 = load ptr, ptr %7, align 8
  %13 = load ptr, ptr %6, align 8
  call void @_Z17lua_pushcclosurekP9lua_StatePFiS0_EPKciPFiS0_iE(ptr noundef %11, ptr noundef %12, ptr noundef %13, i32 noundef 1, ptr noundef null)
  %14 = load ptr, ptr %5, align 8
  %15 = load ptr, ptr %6, align 8
  call void @_Z12lua_setfieldP9lua_StateiPKc(ptr noundef %14, i32 noundef -2, ptr noundef %15)
  ret void
}

; Function Attrs: mustprogress uwtable
define dso_local noundef i32 @_Z12luaopen_baseP9lua_State(ptr noundef %0) #0 {
  %2 = alloca ptr, align 8
  store ptr %0, ptr %2, align 8
  %3 = load ptr, ptr %2, align 8
  call void @_Z13lua_pushvalueP9lua_Statei(ptr noundef %3, i32 noundef -10002)
  %4 = load ptr, ptr %2, align 8
  call void @_Z12lua_setfieldP9lua_StateiPKc(ptr noundef %4, i32 noundef -10002, ptr noundef @.str)
  %5 = load ptr, ptr %2, align 8
  call void @_Z13luaL_registerP9lua_StatePKcPK8luaL_Reg(ptr noundef %5, ptr noundef @.str, ptr noundef @_ZL10base_funcs)
  %6 = load ptr, ptr %2, align 8
  call void @_Z15lua_pushlstringP9lua_StatePKcm(ptr noundef %6, ptr noundef @.str.1, i64 noundef 4)
  %7 = load ptr, ptr %2, align 8
  call void @_Z12lua_setfieldP9lua_StateiPKc(ptr noundef %7, i32 noundef -10002, ptr noundef @.str.2)
  %8 = load ptr, ptr %2, align 8
  call void @_ZL7auxopenP9lua_StatePKcPFiS0_ES4_(ptr noundef %8, ptr noundef @.str.3, ptr noundef @_ZL11luaB_ipairsP9lua_State, ptr noundef @_Z10luaB_inextP9lua_State)
  %9 = load ptr, ptr %2, align 8
  call void @_ZL7auxopenP9lua_StatePKcPFiS0_ES4_(ptr noundef %9, ptr noundef @.str.4, ptr noundef @_ZL10luaB_pairsP9lua_State, ptr noundef @_Z9luaB_nextP9lua_State)
  %10 = load ptr, ptr %2, align 8
  call void @_Z17lua_pushcclosurekP9lua_StatePFiS0_EPKciPFiS0_iE(ptr noundef %10, ptr noundef @_ZL11luaB_pcallyP9lua_State, ptr noundef @.str.5, i32 noundef 0, ptr noundef @_ZL14luaB_pcallcontP9lua_Statei)
  %11 = load ptr, ptr %2, align 8
  call void @_Z12lua_setfieldP9lua_StateiPKc(ptr noundef %11, i32 noundef -2, ptr noundef @.str.5)
  %12 = load ptr, ptr %2, align 8
  call void @_Z17lua_pushcclosurekP9lua_StatePFiS0_EPKciPFiS0_iE(ptr noundef %12, ptr noundef @_ZL12luaB_xpcallyP9lua_State, ptr noundef @.str.6, i32 noundef 0, ptr noundef @_ZL15luaB_xpcallcontP9lua_Statei)
  %13 = load ptr, ptr %2, align 8
  call void @_Z12lua_setfieldP9lua_StateiPKc(ptr noundef %13, i32 noundef -2, ptr noundef @.str.6)
  ret i32 1
}