; Function Attrs: mustprogress uwtable
define dso_local noundef i32 @_Z12luaopen_baseP9lua_State(ptr noundef %0) local_unnamed_addr #0 {
  tail call void @_Z13lua_pushvalueP9lua_Statei(ptr noundef %0, i32 noundef -10002)
  tail call void @_Z12lua_setfieldP9lua_StateiPKc(ptr noundef %0, i32 noundef -10002, ptr noundef nonnull @.str)
  tail call void @_Z13luaL_registerP9lua_StatePKcPK8luaL_Reg(ptr noundef %0, ptr noundef nonnull @.str, ptr noundef nonnull @_ZL10base_funcs)
  tail call void @_Z15lua_pushlstringP9lua_StatePKcm(ptr noundef %0, ptr noundef nonnull @.str.1, i64 noundef 4)
  tail call void @_Z12lua_setfieldP9lua_StateiPKc(ptr noundef %0, i32 noundef -10002, ptr noundef nonnull @.str.2)
  tail call void @_Z17lua_pushcclosurekP9lua_StatePFiS0_EPKciPFiS0_iE(ptr noundef %0, ptr noundef nonnull @_Z10luaB_inextP9lua_State, ptr noundef null, i32 noundef 0, ptr noundef null)
  tail call void @_Z17lua_pushcclosurekP9lua_StatePFiS0_EPKciPFiS0_iE(ptr noundef %0, ptr noundef nonnull @_ZL11luaB_ipairsP9lua_State, ptr noundef nonnull @.str.3, i32 noundef 1, ptr noundef null)
  tail call void @_Z12lua_setfieldP9lua_StateiPKc(ptr noundef %0, i32 noundef -2, ptr noundef nonnull @.str.3)
  tail call void @_Z17lua_pushcclosurekP9lua_StatePFiS0_EPKciPFiS0_iE(ptr noundef %0, ptr noundef nonnull @_Z9luaB_nextP9lua_State, ptr noundef null, i32 noundef 0, ptr noundef null)
  tail call void @_Z17lua_pushcclosurekP9lua_StatePFiS0_EPKciPFiS0_iE(ptr noundef %0, ptr noundef nonnull @_ZL10luaB_pairsP9lua_State, ptr noundef nonnull @.str.4, i32 noundef 1, ptr noundef null)
  tail call void @_Z12lua_setfieldP9lua_StateiPKc(ptr noundef %0, i32 noundef -2, ptr noundef nonnull @.str.4)
  tail call void @_Z17lua_pushcclosurekP9lua_StatePFiS0_EPKciPFiS0_iE(ptr noundef %0, ptr noundef nonnull @_ZL11luaB_pcallyP9lua_State, ptr noundef nonnull @.str.5, i32 noundef 0, ptr noundef nonnull @_ZL14luaB_pcallcontP9lua_Statei)
  tail call void @_Z12lua_setfieldP9lua_StateiPKc(ptr noundef %0, i32 noundef -2, ptr noundef nonnull @.str.5)
  tail call void @_Z17lua_pushcclosurekP9lua_StatePFiS0_EPKciPFiS0_iE(ptr noundef %0, ptr noundef nonnull @_ZL12luaB_xpcallyP9lua_State, ptr noundef nonnull @.str.6, i32 noundef 0, ptr noundef nonnull @_ZL15luaB_xpcallcontP9lua_Statei)
  tail call void @_Z12lua_setfieldP9lua_StateiPKc(ptr noundef %0, i32 noundef -2, ptr noundef nonnull @.str.6)
  ret i32 1
}